; ModuleID = '49/239.c'
source_filename = "49/239.c"
target datalayout = "e-m:e-p270:32:32-p271:32:32-p272:64:64-i64:64-f80:128-n8:16:32:64-S128"
target triple = "x86_64-pc-linux-gnu"

@.str = private unnamed_addr constant [3 x i8] c"%c\00", align 1
@.str.1 = private unnamed_addr constant [2 x i8] c"\0A\00", align 1

; Function Attrs: noinline nounwind uwtable
define dso_local i32 @main() #0 {
  %1 = alloca i32, align 4
  %2 = alloca [1000 x i8], align 16
  %3 = alloca i32, align 4
  %4 = alloca i32, align 4
  %5 = alloca i32, align 4
  %6 = alloca i32, align 4
  %7 = alloca i32, align 4
  store i32 0, i32* %1, align 4
  store i32 0, i32* %7, align 4
  %8 = getelementptr inbounds [1000 x i8], [1000 x i8]* %2, i64 0, i64 0
  %9 = call i32 (i8*, ...) bitcast (i32 (...)* @gets to i32 (i8*, ...)*)(i8* %8)
  %10 = getelementptr inbounds [1000 x i8], [1000 x i8]* %2, i64 0, i64 0
  %11 = call i64 @strlen(i8* %10) #3
  %12 = trunc i64 %11 to i32
  store i32 %12, i32* %6, align 4
  store i32 1, i32* %4, align 4
  br label %13

13:                                               ; preds = %91, %0
  %14 = load i32, i32* %4, align 4
  %15 = load i32, i32* %6, align 4
  %16 = icmp sle i32 %14, %15
  br i1 %16, label %17, label %94

17:                                               ; preds = %13
  store i32 0, i32* %3, align 4
  br label %18

18:                                               ; preds = %87, %17
  %19 = load i32, i32* %3, align 4
  %20 = load i32, i32* %4, align 4
  %21 = add nsw i32 %19, %20
  %22 = load i32, i32* %6, align 4
  %23 = icmp slt i32 %21, %22
  br i1 %23, label %24, label %90

24:                                               ; preds = %18
  store i32 0, i32* %5, align 4
  br label %25

25:                                               ; preds = %57, %24
  %26 = load i32, i32* %5, align 4
  %27 = load i32, i32* %4, align 4
  %28 = sdiv i32 %27, 2
  %29 = icmp sle i32 %26, %28
  br i1 %29, label %30, label %60

30:                                               ; preds = %25
  %31 = load i32, i32* %3, align 4
  %32 = load i32, i32* %4, align 4
  %33 = sdiv i32 %32, 2
  %34 = add nsw i32 %31, %33
  %35 = load i32, i32* %5, align 4
  %36 = sub nsw i32 %34, %35
  %37 = sext i32 %36 to i64
  %38 = getelementptr inbounds [1000 x i8], [1000 x i8]* %2, i64 0, i64 %37
  %39 = load i8, i8* %38, align 1
  %40 = sext i8 %39 to i32
  %41 = load i32, i32* %3, align 4
  %42 = load i32, i32* %4, align 4
  %43 = sdiv i32 %42, 2
  %44 = add nsw i32 %41, %43
  %45 = add nsw i32 %44, 1
  %46 = load i32, i32* %5, align 4
  %47 = add nsw i32 %45, %46
  %48 = sext i32 %47 to i64
  %49 = getelementptr inbounds [1000 x i8], [1000 x i8]* %2, i64 0, i64 %48
  %50 = load i8, i8* %49, align 1
  %51 = sext i8 %50 to i32
  %52 = icmp eq i32 %40, %51
  br i1 %52, label %53, label %56

53:                                               ; preds = %30
  %54 = load i32, i32* %7, align 4
  %55 = add nsw i32 %54, 1
  store i32 %55, i32* %7, align 4
  br label %56

56:                                               ; preds = %53, %30
  br label %57

57:                                               ; preds = %56
  %58 = load i32, i32* %5, align 4
  %59 = add nsw i32 %58, 1
  store i32 %59, i32* %5, align 4
  br label %25

60:                                               ; preds = %25
  %61 = load i32, i32* %7, align 4
  %62 = load i32, i32* %4, align 4
  %63 = sdiv i32 %62, 2
  %64 = add nsw i32 %63, 1
  %65 = icmp eq i32 %61, %64
  br i1 %65, label %66, label %86

66:                                               ; preds = %60
  %67 = load i32, i32* %3, align 4
  store i32 %67, i32* %5, align 4
  br label %68

68:                                               ; preds = %81, %66
  %69 = load i32, i32* %5, align 4
  %70 = load i32, i32* %3, align 4
  %71 = load i32, i32* %4, align 4
  %72 = add nsw i32 %70, %71
  %73 = icmp sle i32 %69, %72
  br i1 %73, label %74, label %84

74:                                               ; preds = %68
  %75 = load i32, i32* %5, align 4
  %76 = sext i32 %75 to i64
  %77 = getelementptr inbounds [1000 x i8], [1000 x i8]* %2, i64 0, i64 %76
  %78 = load i8, i8* %77, align 1
  %79 = sext i8 %78 to i32
  %80 = call i32 (i8*, ...) @printf(i8* getelementptr inbounds ([3 x i8], [3 x i8]* @.str, i64 0, i64 0), i32 %79)
  br label %81

81:                                               ; preds = %74
  %82 = load i32, i32* %5, align 4
  %83 = add nsw i32 %82, 1
  store i32 %83, i32* %5, align 4
  br label %68

84:                                               ; preds = %68
  %85 = call i32 (i8*, ...) @printf(i8* getelementptr inbounds ([2 x i8], [2 x i8]* @.str.1, i64 0, i64 0))
  br label %86

86:                                               ; preds = %84, %60
  store i32 0, i32* %7, align 4
  br label %87

87:                                               ; preds = %86
  %88 = load i32, i32* %3, align 4
  %89 = add nsw i32 %88, 1
  store i32 %89, i32* %3, align 4
  br label %18

90:                                               ; preds = %18
  br label %91

91:                                               ; preds = %90
  %92 = load i32, i32* %4, align 4
  %93 = add nsw i32 %92, 2
  store i32 %93, i32* %4, align 4
  br label %13

94:                                               ; preds = %13
  %95 = call i32 @getchar()
  %96 = call i32 @getchar()
  %97 = load i32, i32* %1, align 4
  ret i32 %97
}

declare dso_local i32 @gets(...) #1

; Function Attrs: nounwind readonly
declare dso_local i64 @strlen(i8*) #2

declare dso_local i32 @printf(i8*, ...) #1

declare dso_local i32 @getchar() #1


!llvm.module.flags = !{!0}
!llvm.ident = !{!1}

!0 = !{i32 1, !"wchar_size", i32 4}
!1 = !{!"clang version 10.0.0-4ubuntu1 "}
